; Function Attrs: nounwind uwtable
define noalias ptr @l_Array_foldlMUnsafe_fold___at_Lean_Elab_Term_expandMatchAlts_x3f___spec__2(ptr noundef readonly captures(none) %0, i64 noundef %1, i64 noundef %2, ptr noundef %3, ptr noundef readonly captures(none) %4, ptr noundef %5) local_unnamed_addr #0 {
  %.not54 = icmp eq i64 %1, %2
  br i1 %.not54, label %._crit_edge, label %.lr.ph

.lr.ph:                                           ; preds = %6
  %7 = getelementptr inbounds nuw i8, ptr %0, i64 24
  br label %8

8:                                                ; preds = %.lr.ph, %60
  %.02857 = phi i64 [ %1, %.lr.ph ], [ %61, %60 ]
  %.03056 = phi ptr [ %3, %.lr.ph ], [ %49, %60 ]
  %.03255 = phi ptr [ %5, %.lr.ph ], [ %31, %60 ]
  %9 = getelementptr inbounds nuw [0 x ptr], ptr %7, i64 0, i64 %.02857
  %10 = load ptr, ptr %9, align 8, !tbaa !12
  %11 = ptrtoint ptr %10 to i64
  %12 = and i64 %11, 1
  %.not.i38 = icmp eq i64 %12, 0
  br i1 %.not.i38, label %13, label %lean_array_uget.exit

13:                                               ; preds = %8
  %.val.i.i = load i32, ptr %10, align 4, !tbaa !4
  %14 = icmp sgt i32 %.val.i.i, 0
  br i1 %14, label %15, label %17, !prof !9

15:                                               ; preds = %13
  %16 = add nuw i32 %.val.i.i, 1
  store i32 %16, ptr %10, align 4, !tbaa !4
  br label %lean_array_uget.exit

17:                                               ; preds = %13
  %.not.i.i = icmp eq i32 %.val.i.i, 0
  br i1 %.not.i.i, label %lean_array_uget.exit, label %18

18:                                               ; preds = %17
  tail call void @lean_inc_ref_cold(ptr noundef nonnull %10) #5
  br label %lean_array_uget.exit

lean_array_uget.exit:                             ; preds = %8, %15, %17, %18
  %19 = tail call ptr @l_Lean_Elab_Term_expandMatchAlt(ptr noundef %10, ptr noundef %4, ptr noundef %.03255)
  %20 = getelementptr inbounds nuw i8, ptr %19, i64 8
  %21 = load ptr, ptr %20, align 8, !tbaa !12
  %22 = ptrtoint ptr %21 to i64
  %23 = and i64 %22, 1
  %.not51 = icmp eq i64 %23, 0
  br i1 %.not51, label %24, label %lean_inc.exit35

24:                                               ; preds = %lean_array_uget.exit
  %.val.i = load i32, ptr %21, align 4, !tbaa !4
  %25 = icmp sgt i32 %.val.i, 0
  br i1 %25, label %26, label %28, !prof !9

26:                                               ; preds = %24
  %27 = add nuw i32 %.val.i, 1
  store i32 %27, ptr %21, align 4, !tbaa !4
  br label %lean_inc.exit35

28:                                               ; preds = %24
  %.not.i39 = icmp eq i32 %.val.i, 0
  br i1 %.not.i39, label %lean_inc.exit35, label %29

29:                                               ; preds = %28
  tail call void @lean_inc_ref_cold(ptr noundef nonnull %21) #5
  br label %lean_inc.exit35

lean_inc.exit35:                                  ; preds = %29, %28, %26, %lean_array_uget.exit
  %30 = getelementptr inbounds nuw i8, ptr %19, i64 16
  %31 = load ptr, ptr %30, align 8, !tbaa !12
  %32 = ptrtoint ptr %31 to i64
  %33 = and i64 %32, 1
  %.not52 = icmp eq i64 %33, 0
  br i1 %.not52, label %34, label %lean_inc.exit

34:                                               ; preds = %lean_inc.exit35
  %.val.i40 = load i32, ptr %31, align 4, !tbaa !4
  %35 = icmp sgt i32 %.val.i40, 0
  br i1 %35, label %36, label %38, !prof !9

36:                                               ; preds = %34
  %37 = add nuw i32 %.val.i40, 1
  store i32 %37, ptr %31, align 4, !tbaa !4
  br label %lean_inc.exit

38:                                               ; preds = %34
  %.not.i41 = icmp eq i32 %.val.i40, 0
  br i1 %.not.i41, label %lean_inc.exit, label %39

39:                                               ; preds = %38
  tail call void @lean_inc_ref_cold(ptr noundef nonnull %31) #5
  br label %lean_inc.exit

lean_inc.exit:                                    ; preds = %39, %38, %36, %lean_inc.exit35
  %40 = ptrtoint ptr %19 to i64
  %41 = and i64 %40, 1
  %.not53 = icmp eq i64 %41, 0
  br i1 %.not53, label %42, label %lean_dec.exit34

42:                                               ; preds = %lean_inc.exit
  %43 = load i32, ptr %19, align 4, !tbaa !4
  %44 = icmp sgt i32 %43, 1
  br i1 %44, label %45, label %47, !prof !9

45:                                               ; preds = %42
  %46 = add nsw i32 %43, -1
  store i32 %46, ptr %19, align 4, !tbaa !4
  br label %lean_dec.exit34

47:                                               ; preds = %42
  %.not.i = icmp eq i32 %43, 0
  br i1 %.not.i, label %lean_dec.exit34, label %48

48:                                               ; preds = %47
  tail call void @lean_dec_ref_cold(ptr noundef nonnull %19) #5
  br label %lean_dec.exit34

lean_dec.exit34:                                  ; preds = %48, %47, %45, %lean_inc.exit
  %49 = tail call ptr @l_Array_append___rarg(ptr noundef %.03056, ptr noundef %21) #5
  br i1 %.not51, label %50, label %60

50:                                               ; preds = %lean_dec.exit34
  %51 = load i32, ptr %21, align 4, !tbaa !4
  %52 = icmp sgt i32 %51, 1
  br i1 %52, label %53, label %55, !prof !9

53:                                               ; preds = %50
  %54 = add nsw i32 %51, -1
  store i32 %54, ptr %21, align 4, !tbaa !4
  br label %60

55:                                               ; preds = %50
  %.not.i36 = icmp eq i32 %51, 0
  br i1 %.not.i36, label %60, label %56

56:                                               ; preds = %55
  tail call void @lean_dec_ref_cold(ptr noundef nonnull %21) #5
  br label %60

._crit_edge:                                      ; preds = %60, %6
  %.032.lcssa = phi ptr [ %5, %6 ], [ %31, %60 ]
  %.030.lcssa = phi ptr [ %3, %6 ], [ %49, %60 ]
  tail call void @lean_inc_heartbeat() #5
  %57 = tail call noalias ptr @mi_malloc_small(i64 noundef 24) #5
  %58 = icmp eq ptr %57, null
  br i1 %58, label %59, label %62

59:                                               ; preds = %._crit_edge
  tail call void @lean_internal_panic_out_of_memory() #6
  unreachable

60:                                               ; preds = %lean_dec.exit34, %53, %55, %56
  %61 = add i64 %.02857, 1
  %.not = icmp eq i64 %61, %2
  br i1 %.not, label %._crit_edge, label %8

62:                                               ; preds = %._crit_edge
  %63 = getelementptr inbounds nuw i8, ptr %57, i64 4
  store i32 1, ptr %57, align 4, !tbaa !4
  store i32 131096, ptr %63, align 4
  %64 = getelementptr inbounds nuw i8, ptr %57, i64 8
  store ptr %.030.lcssa, ptr %64, align 8, !tbaa !12
  %65 = getelementptr inbounds nuw i8, ptr %57, i64 16
  store ptr %.032.lcssa, ptr %65, align 8, !tbaa !12
  ret ptr %57
}